
_thread_test:     file format elf32-i386


Disassembly of section .text:

00000000 <main>:
   0:	8d 4c 24 04          	lea    0x4(%esp),%ecx
   4:	83 e4 f0             	and    $0xfffffff0,%esp
   7:	ff 71 fc             	push   -0x4(%ecx)
   a:	55                   	push   %ebp
   b:	89 e5                	mov    %esp,%ebp
   d:	51                   	push   %ecx
   e:	83 ec 0c             	sub    $0xc,%esp
  11:	c7 05 7c 12 00 00 00 	movl   $0x0,0x127c
  18:	00 00 00 
  1b:	68 14 0d 00 00       	push   $0xd14
  20:	6a 01                	push   $0x1
  22:	c7 05 80 12 00 00 01 	movl   $0x1,0x1280
  29:	00 00 00 
  2c:	c7 05 84 12 00 00 02 	movl   $0x2,0x1284
  33:	00 00 00 
  36:	c7 05 88 12 00 00 03 	movl   $0x3,0x1288
  3d:	00 00 00 
  40:	c7 05 8c 12 00 00 04 	movl   $0x4,0x128c
  47:	00 00 00 
  4a:	e8 c1 08 00 00       	call   910 <printf>
  4f:	58                   	pop    %eax
  50:	5a                   	pop    %edx
  51:	68 70 01 00 00       	push   $0x170
  56:	6a 02                	push   $0x2
  58:	e8 93 03 00 00       	call   3f0 <create_all>
  5d:	c7 04 24 64 00 00 00 	movl   $0x64,(%esp)
  64:	e8 4a 07 00 00       	call   7b3 <sleep>
  69:	59                   	pop    %ecx
  6a:	58                   	pop    %eax
  6b:	68 d8 0d 00 00       	push   $0xdd8
  70:	6a 01                	push   $0x1
  72:	e8 99 08 00 00       	call   910 <printf>
  77:	c7 04 24 02 00 00 00 	movl   $0x2,(%esp)
  7e:	e8 cd 03 00 00       	call   450 <join_all>
  83:	83 c4 10             	add    $0x10,%esp
  86:	83 3d a4 12 00 00 01 	cmpl   $0x1,0x12a4
  8d:	74 13                	je     a2 <main+0xa2>
  8f:	50                   	push   %eax
  90:	50                   	push   %eax
  91:	68 f8 0d 00 00       	push   $0xdf8
  96:	6a 01                	push   $0x1
  98:	e8 73 08 00 00       	call   910 <printf>
  9d:	e8 2e 01 00 00       	call   1d0 <failed>
  a2:	50                   	push   %eax
  a3:	50                   	push   %eax
  a4:	68 28 0d 00 00       	push   $0xd28
  a9:	6a 01                	push   $0x1
  ab:	e8 60 08 00 00       	call   910 <printf>
  b0:	58                   	pop    %eax
  b1:	5a                   	pop    %edx
  b2:	68 38 0d 00 00       	push   $0xd38
  b7:	6a 01                	push   $0x1
  b9:	e8 52 08 00 00       	call   910 <printf>
  be:	59                   	pop    %ecx
  bf:	58                   	pop    %eax
  c0:	68 f0 01 00 00       	push   $0x1f0
  c5:	6a 05                	push   $0x5
  c7:	e8 24 03 00 00       	call   3f0 <create_all>
  cc:	c7 04 24 05 00 00 00 	movl   $0x5,(%esp)
  d3:	e8 78 03 00 00       	call   450 <join_all>
  d8:	a1 a4 12 00 00       	mov    0x12a4,%eax
  dd:	83 c4 10             	add    $0x10,%esp
  e0:	83 f8 02             	cmp    $0x2,%eax
  e3:	74 2e                	je     113 <main+0x113>
  e5:	83 f8 03             	cmp    $0x3,%eax
  e8:	74 16                	je     100 <main+0x100>
  ea:	51                   	push   %ecx
  eb:	50                   	push   %eax
  ec:	68 4b 0d 00 00       	push   $0xd4b
  f1:	6a 01                	push   $0x1
  f3:	e8 18 08 00 00       	call   910 <printf>
  f8:	83 c4 10             	add    $0x10,%esp
  fb:	e8 d0 00 00 00       	call   1d0 <failed>
 100:	50                   	push   %eax
 101:	50                   	push   %eax
 102:	68 48 0e 00 00       	push   $0xe48
 107:	6a 01                	push   $0x1
 109:	e8 02 08 00 00       	call   910 <printf>
 10e:	83 c4 10             	add    $0x10,%esp
 111:	eb e8                	jmp    fb <main+0xfb>
 113:	50                   	push   %eax
 114:	50                   	push   %eax
 115:	68 68 0d 00 00       	push   $0xd68
 11a:	6a 01                	push   $0x1
 11c:	e8 ef 07 00 00       	call   910 <printf>
 121:	5a                   	pop    %edx
 122:	59                   	pop    %ecx
 123:	68 78 0d 00 00       	push   $0xd78
 128:	6a 01                	push   $0x1
 12a:	e8 e1 07 00 00       	call   910 <printf>
 12f:	58                   	pop    %eax
 130:	5a                   	pop    %edx
 131:	68 b0 02 00 00       	push   $0x2b0
 136:	6a 05                	push   $0x5
 138:	e8 b3 02 00 00       	call   3f0 <create_all>
 13d:	c7 04 24 05 00 00 00 	movl   $0x5,(%esp)
 144:	e8 07 03 00 00       	call   450 <join_all>
 149:	59                   	pop    %ecx
 14a:	58                   	pop    %eax
 14b:	68 8b 0d 00 00       	push   $0xd8b
 150:	6a 01                	push   $0x1
 152:	e8 b9 07 00 00       	call   910 <printf>
 157:	58                   	pop    %eax
 158:	5a                   	pop    %edx
 159:	68 9b 0d 00 00       	push   $0xd9b
 15e:	6a 01                	push   $0x1
 160:	e8 ab 07 00 00       	call   910 <printf>
 165:	e8 b9 05 00 00       	call   723 <exit>
 16a:	66 90                	xchg   %ax,%ax
 16c:	66 90                	xchg   %ax,%ax
 16e:	66 90                	xchg   %ax,%ax

00000170 <thread_basic>:
 170:	55                   	push   %ebp
 171:	89 e5                	mov    %esp,%ebp
 173:	53                   	push   %ebx
 174:	83 ec 08             	sub    $0x8,%esp
 177:	8b 5d 08             	mov    0x8(%ebp),%ebx
 17a:	53                   	push   %ebx
 17b:	68 38 0c 00 00       	push   $0xc38
 180:	6a 01                	push   $0x1
 182:	e8 89 07 00 00       	call   910 <printf>
 187:	83 c4 10             	add    $0x10,%esp
 18a:	83 fb 01             	cmp    $0x1,%ebx
 18d:	74 21                	je     1b0 <thread_basic+0x40>
 18f:	83 ec 04             	sub    $0x4,%esp
 192:	53                   	push   %ebx
 193:	68 49 0c 00 00       	push   $0xc49
 198:	6a 01                	push   $0x1
 19a:	e8 71 07 00 00       	call   910 <printf>
 19f:	89 1c 24             	mov    %ebx,(%esp)
 1a2:	e8 84 06 00 00       	call   82b <thread_exit>
 1a7:	8b 5d fc             	mov    -0x4(%ebp),%ebx
 1aa:	31 c0                	xor    %eax,%eax
 1ac:	c9                   	leave  
 1ad:	c3                   	ret    
 1ae:	66 90                	xchg   %ax,%ax
 1b0:	83 ec 0c             	sub    $0xc,%esp
 1b3:	68 c8 00 00 00       	push   $0xc8
 1b8:	e8 f6 05 00 00       	call   7b3 <sleep>
 1bd:	83 c4 10             	add    $0x10,%esp
 1c0:	c7 05 a4 12 00 00 01 	movl   $0x1,0x12a4
 1c7:	00 00 00 
 1ca:	eb c3                	jmp    18f <thread_basic+0x1f>
 1cc:	8d 74 26 00          	lea    0x0(%esi,%eiz,1),%esi

000001d0 <failed>:
 1d0:	55                   	push   %ebp
 1d1:	89 e5                	mov    %esp,%ebp
 1d3:	83 ec 10             	sub    $0x10,%esp
 1d6:	68 58 0c 00 00       	push   $0xc58
 1db:	6a 01                	push   $0x1
 1dd:	e8 2e 07 00 00       	call   910 <printf>
 1e2:	e8 3c 05 00 00       	call   723 <exit>
 1e7:	8d b4 26 00 00 00 00 	lea    0x0(%esi,%eiz,1),%esi
 1ee:	66 90                	xchg   %ax,%ax

000001f0 <thread_fork>:
 1f0:	55                   	push   %ebp
 1f1:	89 e5                	mov    %esp,%ebp
 1f3:	53                   	push   %ebx
 1f4:	83 ec 08             	sub    $0x8,%esp
 1f7:	8b 5d 08             	mov    0x8(%ebp),%ebx
 1fa:	53                   	push   %ebx
 1fb:	68 38 0c 00 00       	push   $0xc38
 200:	6a 01                	push   $0x1
 202:	e8 09 07 00 00       	call   910 <printf>
 207:	e8 0f 05 00 00       	call   71b <fork>
 20c:	83 c4 10             	add    $0x10,%esp
 20f:	85 c0                	test   %eax,%eax
 211:	78 35                	js     248 <thread_fork+0x58>
 213:	74 59                	je     26e <thread_fork+0x7e>
 215:	c7 05 a4 12 00 00 02 	movl   $0x2,0x12a4
 21c:	00 00 00 
 21f:	e8 07 05 00 00       	call   72b <wait>
 224:	83 f8 ff             	cmp    $0xffffffff,%eax
 227:	74 32                	je     25b <thread_fork+0x6b>
 229:	83 ec 04             	sub    $0x4,%esp
 22c:	53                   	push   %ebx
 22d:	68 49 0c 00 00       	push   $0xc49
 232:	6a 01                	push   $0x1
 234:	e8 d7 06 00 00       	call   910 <printf>
 239:	89 1c 24             	mov    %ebx,(%esp)
 23c:	e8 ea 05 00 00       	call   82b <thread_exit>
 241:	8b 5d fc             	mov    -0x4(%ebp),%ebx
 244:	31 c0                	xor    %eax,%eax
 246:	c9                   	leave  
 247:	c3                   	ret    
 248:	51                   	push   %ecx
 249:	53                   	push   %ebx
 24a:	68 66 0c 00 00       	push   $0xc66
 24f:	6a 01                	push   $0x1
 251:	e8 ba 06 00 00       	call   910 <printf>
 256:	e8 75 ff ff ff       	call   1d0 <failed>
 25b:	50                   	push   %eax
 25c:	53                   	push   %ebx
 25d:	68 b1 0c 00 00       	push   $0xcb1
 262:	6a 01                	push   $0x1
 264:	e8 a7 06 00 00       	call   910 <printf>
 269:	e8 62 ff ff ff       	call   1d0 <failed>
 26e:	52                   	push   %edx
 26f:	53                   	push   %ebx
 270:	68 7f 0c 00 00       	push   $0xc7f
 275:	6a 01                	push   $0x1
 277:	e8 94 06 00 00       	call   910 <printf>
 27c:	c7 04 24 64 00 00 00 	movl   $0x64,(%esp)
 283:	e8 2b 05 00 00       	call   7b3 <sleep>
 288:	83 c4 0c             	add    $0xc,%esp
 28b:	c7 05 a4 12 00 00 03 	movl   $0x3,0x12a4
 292:	00 00 00 
 295:	53                   	push   %ebx
 296:	68 99 0c 00 00       	push   $0xc99
 29b:	6a 01                	push   $0x1
 29d:	e8 6e 06 00 00       	call   910 <printf>
 2a2:	e8 7c 04 00 00       	call   723 <exit>
 2a7:	8d b4 26 00 00 00 00 	lea    0x0(%esi,%eiz,1),%esi
 2ae:	66 90                	xchg   %ax,%ax

000002b0 <thread_sbrk>:
 2b0:	55                   	push   %ebp
 2b1:	89 e5                	mov    %esp,%ebp
 2b3:	57                   	push   %edi
 2b4:	56                   	push   %esi
 2b5:	53                   	push   %ebx
 2b6:	83 ec 10             	sub    $0x10,%esp
 2b9:	8b 75 08             	mov    0x8(%ebp),%esi
 2bc:	56                   	push   %esi
 2bd:	68 38 0c 00 00       	push   $0xc38
 2c2:	6a 01                	push   $0x1
 2c4:	e8 47 06 00 00       	call   910 <printf>
 2c9:	83 c4 10             	add    $0x10,%esp
 2cc:	85 f6                	test   %esi,%esi
 2ce:	0f 84 d8 00 00 00    	je     3ac <thread_sbrk+0xfc>
 2d4:	8b 15 78 12 00 00    	mov    0x1278,%edx
 2da:	85 d2                	test   %edx,%edx
 2dc:	75 17                	jne    2f5 <thread_sbrk+0x45>
 2de:	83 ec 0c             	sub    $0xc,%esp
 2e1:	6a 01                	push   $0x1
 2e3:	e8 cb 04 00 00       	call   7b3 <sleep>
 2e8:	8b 15 78 12 00 00    	mov    0x1278,%edx
 2ee:	83 c4 10             	add    $0x10,%esp
 2f1:	85 d2                	test   %edx,%edx
 2f3:	74 e9                	je     2de <thread_sbrk+0x2e>
 2f5:	31 c0                	xor    %eax,%eax
 2f7:	eb 0d                	jmp    306 <thread_sbrk+0x56>
 2f9:	8d b4 26 00 00 00 00 	lea    0x0(%esi,%eiz,1),%esi
 300:	8b 15 78 12 00 00    	mov    0x1278,%edx
 306:	89 34 02             	mov    %esi,(%edx,%eax,1)
 309:	83 c0 04             	add    $0x4,%eax
 30c:	3d 00 00 01 00       	cmp    $0x10000,%eax
 311:	75 ed                	jne    300 <thread_sbrk+0x50>
 313:	a1 78 12 00 00       	mov    0x1278,%eax
 318:	85 c0                	test   %eax,%eax
 31a:	74 16                	je     332 <thread_sbrk+0x82>
 31c:	83 ec 0c             	sub    $0xc,%esp
 31f:	6a 01                	push   $0x1
 321:	e8 8d 04 00 00       	call   7b3 <sleep>
 326:	a1 78 12 00 00       	mov    0x1278,%eax
 32b:	83 c4 10             	add    $0x10,%esp
 32e:	85 c0                	test   %eax,%eax
 330:	75 ea                	jne    31c <thread_sbrk+0x6c>
 332:	bb d0 07 00 00       	mov    $0x7d0,%ebx
 337:	83 ec 0c             	sub    $0xc,%esp
 33a:	68 00 00 01 00       	push   $0x10000
 33f:	e8 fc 07 00 00       	call   b40 <malloc>
 344:	83 c4 10             	add    $0x10,%esp
 347:	89 c7                	mov    %eax,%edi
 349:	89 c2                	mov    %eax,%edx
 34b:	8d 88 00 00 01 00    	lea    0x10000(%eax),%ecx
 351:	8d b4 26 00 00 00 00 	lea    0x0(%esi,%eiz,1),%esi
 358:	89 30                	mov    %esi,(%eax)
 35a:	83 c0 04             	add    $0x4,%eax
 35d:	39 c8                	cmp    %ecx,%eax
 35f:	75 f7                	jne    358 <thread_sbrk+0xa8>
 361:	8d b4 26 00 00 00 00 	lea    0x0(%esi,%eiz,1),%esi
 368:	8b 02                	mov    (%edx),%eax
 36a:	39 f0                	cmp    %esi,%eax
 36c:	75 2b                	jne    399 <thread_sbrk+0xe9>
 36e:	83 c2 04             	add    $0x4,%edx
 371:	39 ca                	cmp    %ecx,%edx
 373:	75 f3                	jne    368 <thread_sbrk+0xb8>
 375:	83 ec 0c             	sub    $0xc,%esp
 378:	57                   	push   %edi
 379:	e8 32 07 00 00       	call   ab0 <free>
 37e:	83 c4 10             	add    $0x10,%esp
 381:	83 eb 01             	sub    $0x1,%ebx
 384:	75 b1                	jne    337 <thread_sbrk+0x87>
 386:	83 ec 0c             	sub    $0xc,%esp
 389:	56                   	push   %esi
 38a:	e8 9c 04 00 00       	call   82b <thread_exit>
 38f:	8d 65 f4             	lea    -0xc(%ebp),%esp
 392:	31 c0                	xor    %eax,%eax
 394:	5b                   	pop    %ebx
 395:	5e                   	pop    %esi
 396:	5f                   	pop    %edi
 397:	5d                   	pop    %ebp
 398:	c3                   	ret    
 399:	50                   	push   %eax
 39a:	56                   	push   %esi
 39b:	68 cd 0c 00 00       	push   $0xccd
 3a0:	6a 01                	push   $0x1
 3a2:	e8 69 05 00 00       	call   910 <printf>
 3a7:	e8 24 fe ff ff       	call   1d0 <failed>
 3ac:	83 ec 0c             	sub    $0xc,%esp
 3af:	68 00 00 01 00       	push   $0x10000
 3b4:	e8 87 07 00 00       	call   b40 <malloc>
 3b9:	c7 04 24 e8 03 00 00 	movl   $0x3e8,(%esp)
 3c0:	a3 78 12 00 00       	mov    %eax,0x1278
 3c5:	e8 e9 03 00 00       	call   7b3 <sleep>
 3ca:	5a                   	pop    %edx
 3cb:	ff 35 78 12 00 00    	push   0x1278
 3d1:	e8 da 06 00 00       	call   ab0 <free>
 3d6:	83 c4 10             	add    $0x10,%esp
 3d9:	c7 05 78 12 00 00 00 	movl   $0x0,0x1278
 3e0:	00 00 00 
 3e3:	e9 4a ff ff ff       	jmp    332 <thread_sbrk+0x82>
 3e8:	8d b4 26 00 00 00 00 	lea    0x0(%esi,%eiz,1),%esi
 3ef:	90                   	nop

000003f0 <create_all>:
 3f0:	55                   	push   %ebp
 3f1:	89 e5                	mov    %esp,%ebp
 3f3:	57                   	push   %edi
 3f4:	56                   	push   %esi
 3f5:	53                   	push   %ebx
 3f6:	83 ec 0c             	sub    $0xc,%esp
 3f9:	8b 75 08             	mov    0x8(%ebp),%esi
 3fc:	8b 7d 0c             	mov    0xc(%ebp),%edi
 3ff:	85 f6                	test   %esi,%esi
 401:	7e 25                	jle    428 <create_all+0x38>
 403:	31 db                	xor    %ebx,%ebx
 405:	8d 76 00             	lea    0x0(%esi),%esi
 408:	83 ec 04             	sub    $0x4,%esp
 40b:	8d 04 9d 90 12 00 00 	lea    0x1290(,%ebx,4),%eax
 412:	53                   	push   %ebx
 413:	57                   	push   %edi
 414:	50                   	push   %eax
 415:	e8 09 04 00 00       	call   823 <thread_create>
 41a:	83 c4 10             	add    $0x10,%esp
 41d:	85 c0                	test   %eax,%eax
 41f:	75 0f                	jne    430 <create_all+0x40>
 421:	83 c3 01             	add    $0x1,%ebx
 424:	39 de                	cmp    %ebx,%esi
 426:	75 e0                	jne    408 <create_all+0x18>
 428:	8d 65 f4             	lea    -0xc(%ebp),%esp
 42b:	5b                   	pop    %ebx
 42c:	5e                   	pop    %esi
 42d:	5f                   	pop    %edi
 42e:	5d                   	pop    %ebp
 42f:	c3                   	ret    
 430:	83 ec 04             	sub    $0x4,%esp
 433:	53                   	push   %ebx
 434:	68 e1 0c 00 00       	push   $0xce1
 439:	6a 01                	push   $0x1
 43b:	e8 d0 04 00 00       	call   910 <printf>
 440:	e8 8b fd ff ff       	call   1d0 <failed>
 445:	8d b4 26 00 00 00 00 	lea    0x0(%esi,%eiz,1),%esi
 44c:	8d 74 26 00          	lea    0x0(%esi,%eiz,1),%esi

00000450 <join_all>:
 450:	55                   	push   %ebp
 451:	89 e5                	mov    %esp,%ebp
 453:	57                   	push   %edi
 454:	56                   	push   %esi
 455:	53                   	push   %ebx
 456:	83 ec 1c             	sub    $0x1c,%esp
 459:	8b 75 08             	mov    0x8(%ebp),%esi
 45c:	85 f6                	test   %esi,%esi
 45e:	7e 34                	jle    494 <join_all+0x44>
 460:	31 db                	xor    %ebx,%ebx
 462:	8d 7d e4             	lea    -0x1c(%ebp),%edi
 465:	8d 76 00             	lea    0x0(%esi),%esi
 468:	83 ec 08             	sub    $0x8,%esp
 46b:	57                   	push   %edi
 46c:	ff 34 9d 90 12 00 00 	push   0x1290(,%ebx,4)
 473:	e8 bb 03 00 00       	call   833 <thread_join>
 478:	83 c4 10             	add    $0x10,%esp
 47b:	85 c0                	test   %eax,%eax
 47d:	75 1d                	jne    49c <join_all+0x4c>
 47f:	8b 14 9d 7c 12 00 00 	mov    0x127c(,%ebx,4),%edx
 486:	8b 45 e4             	mov    -0x1c(%ebp),%eax
 489:	39 c2                	cmp    %eax,%edx
 48b:	75 24                	jne    4b1 <join_all+0x61>
 48d:	83 c3 01             	add    $0x1,%ebx
 490:	39 de                	cmp    %ebx,%esi
 492:	75 d4                	jne    468 <join_all+0x18>
 494:	8d 65 f4             	lea    -0xc(%ebp),%esp
 497:	5b                   	pop    %ebx
 498:	5e                   	pop    %esi
 499:	5f                   	pop    %edi
 49a:	5d                   	pop    %ebp
 49b:	c3                   	ret    
 49c:	83 ec 04             	sub    $0x4,%esp
 49f:	53                   	push   %ebx
 4a0:	68 fb 0c 00 00       	push   $0xcfb
 4a5:	6a 01                	push   $0x1
 4a7:	e8 64 04 00 00       	call   910 <printf>
 4ac:	e8 1f fd ff ff       	call   1d0 <failed>
 4b1:	83 ec 0c             	sub    $0xc,%esp
 4b4:	52                   	push   %edx
 4b5:	50                   	push   %eax
 4b6:	53                   	push   %ebx
 4b7:	68 b0 0d 00 00       	push   $0xdb0
 4bc:	6a 01                	push   $0x1
 4be:	e8 4d 04 00 00       	call   910 <printf>
 4c3:	83 c4 20             	add    $0x20,%esp
 4c6:	e8 05 fd ff ff       	call   1d0 <failed>
 4cb:	66 90                	xchg   %ax,%ax
 4cd:	66 90                	xchg   %ax,%ax
 4cf:	90                   	nop

000004d0 <strcpy>:
 4d0:	55                   	push   %ebp
 4d1:	31 c0                	xor    %eax,%eax
 4d3:	89 e5                	mov    %esp,%ebp
 4d5:	53                   	push   %ebx
 4d6:	8b 4d 08             	mov    0x8(%ebp),%ecx
 4d9:	8b 5d 0c             	mov    0xc(%ebp),%ebx
 4dc:	8d 74 26 00          	lea    0x0(%esi,%eiz,1),%esi
 4e0:	0f b6 14 03          	movzbl (%ebx,%eax,1),%edx
 4e4:	88 14 01             	mov    %dl,(%ecx,%eax,1)
 4e7:	83 c0 01             	add    $0x1,%eax
 4ea:	84 d2                	test   %dl,%dl
 4ec:	75 f2                	jne    4e0 <strcpy+0x10>
 4ee:	8b 5d fc             	mov    -0x4(%ebp),%ebx
 4f1:	89 c8                	mov    %ecx,%eax
 4f3:	c9                   	leave  
 4f4:	c3                   	ret    
 4f5:	8d b4 26 00 00 00 00 	lea    0x0(%esi,%eiz,1),%esi
 4fc:	8d 74 26 00          	lea    0x0(%esi,%eiz,1),%esi

00000500 <strcmp>:
 500:	55                   	push   %ebp
 501:	89 e5                	mov    %esp,%ebp
 503:	53                   	push   %ebx
 504:	8b 55 08             	mov    0x8(%ebp),%edx
 507:	8b 4d 0c             	mov    0xc(%ebp),%ecx
 50a:	0f b6 02             	movzbl (%edx),%eax
 50d:	84 c0                	test   %al,%al
 50f:	75 17                	jne    528 <strcmp+0x28>
 511:	eb 3a                	jmp    54d <strcmp+0x4d>
 513:	8d 74 26 00          	lea    0x0(%esi,%eiz,1),%esi
 517:	90                   	nop
 518:	0f b6 42 01          	movzbl 0x1(%edx),%eax
 51c:	83 c2 01             	add    $0x1,%edx
 51f:	8d 59 01             	lea    0x1(%ecx),%ebx
 522:	84 c0                	test   %al,%al
 524:	74 1a                	je     540 <strcmp+0x40>
 526:	89 d9                	mov    %ebx,%ecx
 528:	0f b6 19             	movzbl (%ecx),%ebx
 52b:	38 c3                	cmp    %al,%bl
 52d:	74 e9                	je     518 <strcmp+0x18>
 52f:	29 d8                	sub    %ebx,%eax
 531:	8b 5d fc             	mov    -0x4(%ebp),%ebx
 534:	c9                   	leave  
 535:	c3                   	ret    
 536:	8d b4 26 00 00 00 00 	lea    0x0(%esi,%eiz,1),%esi
 53d:	8d 76 00             	lea    0x0(%esi),%esi
 540:	0f b6 59 01          	movzbl 0x1(%ecx),%ebx
 544:	31 c0                	xor    %eax,%eax
 546:	29 d8                	sub    %ebx,%eax
 548:	8b 5d fc             	mov    -0x4(%ebp),%ebx
 54b:	c9                   	leave  
 54c:	c3                   	ret    
 54d:	0f b6 19             	movzbl (%ecx),%ebx
 550:	31 c0                	xor    %eax,%eax
 552:	eb db                	jmp    52f <strcmp+0x2f>
 554:	8d b4 26 00 00 00 00 	lea    0x0(%esi,%eiz,1),%esi
 55b:	8d 74 26 00          	lea    0x0(%esi,%eiz,1),%esi
 55f:	90                   	nop

00000560 <strlen>:
 560:	55                   	push   %ebp
 561:	89 e5                	mov    %esp,%ebp
 563:	8b 55 08             	mov    0x8(%ebp),%edx
 566:	80 3a 00             	cmpb   $0x0,(%edx)
 569:	74 15                	je     580 <strlen+0x20>
 56b:	31 c0                	xor    %eax,%eax
 56d:	8d 76 00             	lea    0x0(%esi),%esi
 570:	83 c0 01             	add    $0x1,%eax
 573:	80 3c 02 00          	cmpb   $0x0,(%edx,%eax,1)
 577:	89 c1                	mov    %eax,%ecx
 579:	75 f5                	jne    570 <strlen+0x10>
 57b:	89 c8                	mov    %ecx,%eax
 57d:	5d                   	pop    %ebp
 57e:	c3                   	ret    
 57f:	90                   	nop
 580:	31 c9                	xor    %ecx,%ecx
 582:	5d                   	pop    %ebp
 583:	89 c8                	mov    %ecx,%eax
 585:	c3                   	ret    
 586:	8d b4 26 00 00 00 00 	lea    0x0(%esi,%eiz,1),%esi
 58d:	8d 76 00             	lea    0x0(%esi),%esi

00000590 <memset>:
 590:	55                   	push   %ebp
 591:	89 e5                	mov    %esp,%ebp
 593:	57                   	push   %edi
 594:	8b 55 08             	mov    0x8(%ebp),%edx
 597:	8b 4d 10             	mov    0x10(%ebp),%ecx
 59a:	8b 45 0c             	mov    0xc(%ebp),%eax
 59d:	89 d7                	mov    %edx,%edi
 59f:	fc                   	cld    
 5a0:	f3 aa                	rep stos %al,%es:(%edi)
 5a2:	8b 7d fc             	mov    -0x4(%ebp),%edi
 5a5:	89 d0                	mov    %edx,%eax
 5a7:	c9                   	leave  
 5a8:	c3                   	ret    
 5a9:	8d b4 26 00 00 00 00 	lea    0x0(%esi,%eiz,1),%esi

000005b0 <strchr>:
 5b0:	55                   	push   %ebp
 5b1:	89 e5                	mov    %esp,%ebp
 5b3:	8b 45 08             	mov    0x8(%ebp),%eax
 5b6:	0f b6 4d 0c          	movzbl 0xc(%ebp),%ecx
 5ba:	0f b6 10             	movzbl (%eax),%edx
 5bd:	84 d2                	test   %dl,%dl
 5bf:	75 12                	jne    5d3 <strchr+0x23>
 5c1:	eb 1d                	jmp    5e0 <strchr+0x30>
 5c3:	8d 74 26 00          	lea    0x0(%esi,%eiz,1),%esi
 5c7:	90                   	nop
 5c8:	0f b6 50 01          	movzbl 0x1(%eax),%edx
 5cc:	83 c0 01             	add    $0x1,%eax
 5cf:	84 d2                	test   %dl,%dl
 5d1:	74 0d                	je     5e0 <strchr+0x30>
 5d3:	38 d1                	cmp    %dl,%cl
 5d5:	75 f1                	jne    5c8 <strchr+0x18>
 5d7:	5d                   	pop    %ebp
 5d8:	c3                   	ret    
 5d9:	8d b4 26 00 00 00 00 	lea    0x0(%esi,%eiz,1),%esi
 5e0:	31 c0                	xor    %eax,%eax
 5e2:	5d                   	pop    %ebp
 5e3:	c3                   	ret    
 5e4:	8d b4 26 00 00 00 00 	lea    0x0(%esi,%eiz,1),%esi
 5eb:	8d 74 26 00          	lea    0x0(%esi,%eiz,1),%esi
 5ef:	90                   	nop

000005f0 <gets>:
 5f0:	55                   	push   %ebp
 5f1:	89 e5                	mov    %esp,%ebp
 5f3:	57                   	push   %edi
 5f4:	56                   	push   %esi
 5f5:	8d 7d e7             	lea    -0x19(%ebp),%edi
 5f8:	53                   	push   %ebx
 5f9:	31 db                	xor    %ebx,%ebx
 5fb:	83 ec 1c             	sub    $0x1c,%esp
 5fe:	eb 27                	jmp    627 <gets+0x37>
 600:	83 ec 04             	sub    $0x4,%esp
 603:	6a 01                	push   $0x1
 605:	57                   	push   %edi
 606:	6a 00                	push   $0x0
 608:	e8 2e 01 00 00       	call   73b <read>
 60d:	83 c4 10             	add    $0x10,%esp
 610:	85 c0                	test   %eax,%eax
 612:	7e 1d                	jle    631 <gets+0x41>
 614:	0f b6 45 e7          	movzbl -0x19(%ebp),%eax
 618:	8b 55 08             	mov    0x8(%ebp),%edx
 61b:	88 44 1a ff          	mov    %al,-0x1(%edx,%ebx,1)
 61f:	3c 0a                	cmp    $0xa,%al
 621:	74 1d                	je     640 <gets+0x50>
 623:	3c 0d                	cmp    $0xd,%al
 625:	74 19                	je     640 <gets+0x50>
 627:	89 de                	mov    %ebx,%esi
 629:	83 c3 01             	add    $0x1,%ebx
 62c:	3b 5d 0c             	cmp    0xc(%ebp),%ebx
 62f:	7c cf                	jl     600 <gets+0x10>
 631:	8b 45 08             	mov    0x8(%ebp),%eax
 634:	c6 04 30 00          	movb   $0x0,(%eax,%esi,1)
 638:	8d 65 f4             	lea    -0xc(%ebp),%esp
 63b:	5b                   	pop    %ebx
 63c:	5e                   	pop    %esi
 63d:	5f                   	pop    %edi
 63e:	5d                   	pop    %ebp
 63f:	c3                   	ret    
 640:	8b 45 08             	mov    0x8(%ebp),%eax
 643:	89 de                	mov    %ebx,%esi
 645:	c6 04 30 00          	movb   $0x0,(%eax,%esi,1)
 649:	8d 65 f4             	lea    -0xc(%ebp),%esp
 64c:	5b                   	pop    %ebx
 64d:	5e                   	pop    %esi
 64e:	5f                   	pop    %edi
 64f:	5d                   	pop    %ebp
 650:	c3                   	ret    
 651:	8d b4 26 00 00 00 00 	lea    0x0(%esi,%eiz,1),%esi
 658:	8d b4 26 00 00 00 00 	lea    0x0(%esi,%eiz,1),%esi
 65f:	90                   	nop

00000660 <stat>:
 660:	55                   	push   %ebp
 661:	89 e5                	mov    %esp,%ebp
 663:	56                   	push   %esi
 664:	53                   	push   %ebx
 665:	83 ec 08             	sub    $0x8,%esp
 668:	6a 00                	push   $0x0
 66a:	ff 75 08             	push   0x8(%ebp)
 66d:	e8 f1 00 00 00       	call   763 <open>
 672:	83 c4 10             	add    $0x10,%esp
 675:	85 c0                	test   %eax,%eax
 677:	78 27                	js     6a0 <stat+0x40>
 679:	83 ec 08             	sub    $0x8,%esp
 67c:	ff 75 0c             	push   0xc(%ebp)
 67f:	89 c3                	mov    %eax,%ebx
 681:	50                   	push   %eax
 682:	e8 f4 00 00 00       	call   77b <fstat>
 687:	89 1c 24             	mov    %ebx,(%esp)
 68a:	89 c6                	mov    %eax,%esi
 68c:	e8 ba 00 00 00       	call   74b <close>
 691:	83 c4 10             	add    $0x10,%esp
 694:	8d 65 f8             	lea    -0x8(%ebp),%esp
 697:	89 f0                	mov    %esi,%eax
 699:	5b                   	pop    %ebx
 69a:	5e                   	pop    %esi
 69b:	5d                   	pop    %ebp
 69c:	c3                   	ret    
 69d:	8d 76 00             	lea    0x0(%esi),%esi
 6a0:	be ff ff ff ff       	mov    $0xffffffff,%esi
 6a5:	eb ed                	jmp    694 <stat+0x34>
 6a7:	8d b4 26 00 00 00 00 	lea    0x0(%esi,%eiz,1),%esi
 6ae:	66 90                	xchg   %ax,%ax

000006b0 <atoi>:
 6b0:	55                   	push   %ebp
 6b1:	89 e5                	mov    %esp,%ebp
 6b3:	53                   	push   %ebx
 6b4:	8b 55 08             	mov    0x8(%ebp),%edx
 6b7:	0f be 02             	movsbl (%edx),%eax
 6ba:	8d 48 d0             	lea    -0x30(%eax),%ecx
 6bd:	80 f9 09             	cmp    $0x9,%cl
 6c0:	b9 00 00 00 00       	mov    $0x0,%ecx
 6c5:	77 1e                	ja     6e5 <atoi+0x35>
 6c7:	8d b4 26 00 00 00 00 	lea    0x0(%esi,%eiz,1),%esi
 6ce:	66 90                	xchg   %ax,%ax
 6d0:	83 c2 01             	add    $0x1,%edx
 6d3:	8d 0c 89             	lea    (%ecx,%ecx,4),%ecx
 6d6:	8d 4c 48 d0          	lea    -0x30(%eax,%ecx,2),%ecx
 6da:	0f be 02             	movsbl (%edx),%eax
 6dd:	8d 58 d0             	lea    -0x30(%eax),%ebx
 6e0:	80 fb 09             	cmp    $0x9,%bl
 6e3:	76 eb                	jbe    6d0 <atoi+0x20>
 6e5:	8b 5d fc             	mov    -0x4(%ebp),%ebx
 6e8:	89 c8                	mov    %ecx,%eax
 6ea:	c9                   	leave  
 6eb:	c3                   	ret    
 6ec:	8d 74 26 00          	lea    0x0(%esi,%eiz,1),%esi

000006f0 <memmove>:
 6f0:	55                   	push   %ebp
 6f1:	89 e5                	mov    %esp,%ebp
 6f3:	57                   	push   %edi
 6f4:	8b 45 10             	mov    0x10(%ebp),%eax
 6f7:	8b 55 08             	mov    0x8(%ebp),%edx
 6fa:	56                   	push   %esi
 6fb:	8b 75 0c             	mov    0xc(%ebp),%esi
 6fe:	85 c0                	test   %eax,%eax
 700:	7e 13                	jle    715 <memmove+0x25>
 702:	01 d0                	add    %edx,%eax
 704:	89 d7                	mov    %edx,%edi
 706:	8d b4 26 00 00 00 00 	lea    0x0(%esi,%eiz,1),%esi
 70d:	8d 76 00             	lea    0x0(%esi),%esi
 710:	a4                   	movsb  %ds:(%esi),%es:(%edi)
 711:	39 f8                	cmp    %edi,%eax
 713:	75 fb                	jne    710 <memmove+0x20>
 715:	5e                   	pop    %esi
 716:	89 d0                	mov    %edx,%eax
 718:	5f                   	pop    %edi
 719:	5d                   	pop    %ebp
 71a:	c3                   	ret    

0000071b <fork>:
 71b:	b8 01 00 00 00       	mov    $0x1,%eax
 720:	cd 40                	int    $0x40
 722:	c3                   	ret    

00000723 <exit>:
 723:	b8 02 00 00 00       	mov    $0x2,%eax
 728:	cd 40                	int    $0x40
 72a:	c3                   	ret    

0000072b <wait>:
 72b:	b8 03 00 00 00       	mov    $0x3,%eax
 730:	cd 40                	int    $0x40
 732:	c3                   	ret    

00000733 <pipe>:
 733:	b8 04 00 00 00       	mov    $0x4,%eax
 738:	cd 40                	int    $0x40
 73a:	c3                   	ret    

0000073b <read>:
 73b:	b8 05 00 00 00       	mov    $0x5,%eax
 740:	cd 40                	int    $0x40
 742:	c3                   	ret    

00000743 <write>:
 743:	b8 10 00 00 00       	mov    $0x10,%eax
 748:	cd 40                	int    $0x40
 74a:	c3                   	ret    

0000074b <close>:
 74b:	b8 15 00 00 00       	mov    $0x15,%eax
 750:	cd 40                	int    $0x40
 752:	c3                   	ret    

00000753 <kill>:
 753:	b8 06 00 00 00       	mov    $0x6,%eax
 758:	cd 40                	int    $0x40
 75a:	c3                   	ret    

0000075b <exec>:
 75b:	b8 07 00 00 00       	mov    $0x7,%eax
 760:	cd 40                	int    $0x40
 762:	c3                   	ret    

00000763 <open>:
 763:	b8 0f 00 00 00       	mov    $0xf,%eax
 768:	cd 40                	int    $0x40
 76a:	c3                   	ret    

0000076b <mknod>:
 76b:	b8 11 00 00 00       	mov    $0x11,%eax
 770:	cd 40                	int    $0x40
 772:	c3                   	ret    

00000773 <unlink>:
 773:	b8 12 00 00 00       	mov    $0x12,%eax
 778:	cd 40                	int    $0x40
 77a:	c3                   	ret    

0000077b <fstat>:
 77b:	b8 08 00 00 00       	mov    $0x8,%eax
 780:	cd 40                	int    $0x40
 782:	c3                   	ret    

00000783 <link>:
 783:	b8 13 00 00 00       	mov    $0x13,%eax
 788:	cd 40                	int    $0x40
 78a:	c3                   	ret    

0000078b <mkdir>:
 78b:	b8 14 00 00 00       	mov    $0x14,%eax
 790:	cd 40                	int    $0x40
 792:	c3                   	ret    

00000793 <chdir>:
 793:	b8 09 00 00 00       	mov    $0x9,%eax
 798:	cd 40                	int    $0x40
 79a:	c3                   	ret    

0000079b <dup>:
 79b:	b8 0a 00 00 00       	mov    $0xa,%eax
 7a0:	cd 40                	int    $0x40
 7a2:	c3                   	ret    

000007a3 <getpid>:
 7a3:	b8 0b 00 00 00       	mov    $0xb,%eax
 7a8:	cd 40                	int    $0x40
 7aa:	c3                   	ret    

000007ab <sbrk>:
 7ab:	b8 0c 00 00 00       	mov    $0xc,%eax
 7b0:	cd 40                	int    $0x40
 7b2:	c3                   	ret    

000007b3 <sleep>:
 7b3:	b8 0d 00 00 00       	mov    $0xd,%eax
 7b8:	cd 40                	int    $0x40
 7ba:	c3                   	ret    

000007bb <uptime>:
 7bb:	b8 0e 00 00 00       	mov    $0xe,%eax
 7c0:	cd 40                	int    $0x40
 7c2:	c3                   	ret    

000007c3 <safeprint>:
 7c3:	b8 16 00 00 00       	mov    $0x16,%eax
 7c8:	cd 40                	int    $0x40
 7ca:	c3                   	ret    

000007cb <yield>:
 7cb:	b8 17 00 00 00       	mov    $0x17,%eax
 7d0:	cd 40                	int    $0x40
 7d2:	c3                   	ret    

000007d3 <getLevel>:
 7d3:	b8 18 00 00 00       	mov    $0x18,%eax
 7d8:	cd 40                	int    $0x40
 7da:	c3                   	ret    

000007db <setPriority>:
 7db:	b8 19 00 00 00       	mov    $0x19,%eax
 7e0:	cd 40                	int    $0x40
 7e2:	c3                   	ret    

000007e3 <schedulerLock>:
 7e3:	b8 1a 00 00 00       	mov    $0x1a,%eax
 7e8:	cd 40                	int    $0x40
 7ea:	c3                   	ret    

000007eb <schedulerUnlock>:
 7eb:	b8 1b 00 00 00       	mov    $0x1b,%eax
 7f0:	cd 40                	int    $0x40
 7f2:	c3                   	ret    

000007f3 <bp_tracer>:
 7f3:	b8 1c 00 00 00       	mov    $0x1c,%eax
 7f8:	cd 40                	int    $0x40
 7fa:	c3                   	ret    

000007fb <mutex_init>:
 7fb:	b8 1d 00 00 00       	mov    $0x1d,%eax
 800:	cd 40                	int    $0x40
 802:	c3                   	ret    

00000803 <mutex_lock>:
 803:	b8 1e 00 00 00       	mov    $0x1e,%eax
 808:	cd 40                	int    $0x40
 80a:	c3                   	ret    

0000080b <mutex_unlock>:
 80b:	b8 1f 00 00 00       	mov    $0x1f,%eax
 810:	cd 40                	int    $0x40
 812:	c3                   	ret    

00000813 <exec2>:
 813:	b8 20 00 00 00       	mov    $0x20,%eax
 818:	cd 40                	int    $0x40
 81a:	c3                   	ret    

0000081b <setmemorylimit>:
 81b:	b8 21 00 00 00       	mov    $0x21,%eax
 820:	cd 40                	int    $0x40
 822:	c3                   	ret    

00000823 <thread_create>:
 823:	b8 22 00 00 00       	mov    $0x22,%eax
 828:	cd 40                	int    $0x40
 82a:	c3                   	ret    

0000082b <thread_exit>:
 82b:	b8 23 00 00 00       	mov    $0x23,%eax
 830:	cd 40                	int    $0x40
 832:	c3                   	ret    

00000833 <thread_join>:
 833:	b8 24 00 00 00       	mov    $0x24,%eax
 838:	cd 40                	int    $0x40
 83a:	c3                   	ret    

0000083b <plist>:
 83b:	b8 25 00 00 00       	mov    $0x25,%eax
 840:	cd 40                	int    $0x40
 842:	c3                   	ret    

00000843 <get_pid>:
 843:	b8 26 00 00 00       	mov    $0x26,%eax
 848:	cd 40                	int    $0x40
 84a:	c3                   	ret    

0000084b <get_tid>:
 84b:	b8 27 00 00 00       	mov    $0x27,%eax
 850:	cd 40                	int    $0x40
 852:	c3                   	ret    
 853:	66 90                	xchg   %ax,%ax
 855:	66 90                	xchg   %ax,%ax
 857:	66 90                	xchg   %ax,%ax
 859:	66 90                	xchg   %ax,%ax
 85b:	66 90                	xchg   %ax,%ax
 85d:	66 90                	xchg   %ax,%ax
 85f:	90                   	nop

00000860 <printint>:
 860:	55                   	push   %ebp
 861:	89 e5                	mov    %esp,%ebp
 863:	57                   	push   %edi
 864:	56                   	push   %esi
 865:	53                   	push   %ebx
 866:	83 ec 3c             	sub    $0x3c,%esp
 869:	89 4d c4             	mov    %ecx,-0x3c(%ebp)
 86c:	89 d1                	mov    %edx,%ecx
 86e:	89 45 b8             	mov    %eax,-0x48(%ebp)
 871:	85 d2                	test   %edx,%edx
 873:	0f 89 7f 00 00 00    	jns    8f8 <printint+0x98>
 879:	f6 45 08 01          	testb  $0x1,0x8(%ebp)
 87d:	74 79                	je     8f8 <printint+0x98>
 87f:	c7 45 bc 01 00 00 00 	movl   $0x1,-0x44(%ebp)
 886:	f7 d9                	neg    %ecx
 888:	31 db                	xor    %ebx,%ebx
 88a:	8d 75 d7             	lea    -0x29(%ebp),%esi
 88d:	8d 76 00             	lea    0x0(%esi),%esi
 890:	89 c8                	mov    %ecx,%eax
 892:	31 d2                	xor    %edx,%edx
 894:	89 cf                	mov    %ecx,%edi
 896:	f7 75 c4             	divl   -0x3c(%ebp)
 899:	0f b6 92 d4 0e 00 00 	movzbl 0xed4(%edx),%edx
 8a0:	89 45 c0             	mov    %eax,-0x40(%ebp)
 8a3:	89 d8                	mov    %ebx,%eax
 8a5:	8d 5b 01             	lea    0x1(%ebx),%ebx
 8a8:	8b 4d c0             	mov    -0x40(%ebp),%ecx
 8ab:	88 14 1e             	mov    %dl,(%esi,%ebx,1)
 8ae:	39 7d c4             	cmp    %edi,-0x3c(%ebp)
 8b1:	76 dd                	jbe    890 <printint+0x30>
 8b3:	8b 4d bc             	mov    -0x44(%ebp),%ecx
 8b6:	85 c9                	test   %ecx,%ecx
 8b8:	74 0c                	je     8c6 <printint+0x66>
 8ba:	c6 44 1d d8 2d       	movb   $0x2d,-0x28(%ebp,%ebx,1)
 8bf:	89 d8                	mov    %ebx,%eax
 8c1:	ba 2d 00 00 00       	mov    $0x2d,%edx
 8c6:	8b 7d b8             	mov    -0x48(%ebp),%edi
 8c9:	8d 5c 05 d7          	lea    -0x29(%ebp,%eax,1),%ebx
 8cd:	eb 07                	jmp    8d6 <printint+0x76>
 8cf:	90                   	nop
 8d0:	0f b6 13             	movzbl (%ebx),%edx
 8d3:	83 eb 01             	sub    $0x1,%ebx
 8d6:	83 ec 04             	sub    $0x4,%esp
 8d9:	88 55 d7             	mov    %dl,-0x29(%ebp)
 8dc:	6a 01                	push   $0x1
 8de:	56                   	push   %esi
 8df:	57                   	push   %edi
 8e0:	e8 5e fe ff ff       	call   743 <write>
 8e5:	83 c4 10             	add    $0x10,%esp
 8e8:	39 de                	cmp    %ebx,%esi
 8ea:	75 e4                	jne    8d0 <printint+0x70>
 8ec:	8d 65 f4             	lea    -0xc(%ebp),%esp
 8ef:	5b                   	pop    %ebx
 8f0:	5e                   	pop    %esi
 8f1:	5f                   	pop    %edi
 8f2:	5d                   	pop    %ebp
 8f3:	c3                   	ret    
 8f4:	8d 74 26 00          	lea    0x0(%esi,%eiz,1),%esi
 8f8:	c7 45 bc 00 00 00 00 	movl   $0x0,-0x44(%ebp)
 8ff:	eb 87                	jmp    888 <printint+0x28>
 901:	8d b4 26 00 00 00 00 	lea    0x0(%esi,%eiz,1),%esi
 908:	8d b4 26 00 00 00 00 	lea    0x0(%esi,%eiz,1),%esi
 90f:	90                   	nop

00000910 <printf>:
 910:	55                   	push   %ebp
 911:	89 e5                	mov    %esp,%ebp
 913:	57                   	push   %edi
 914:	56                   	push   %esi
 915:	53                   	push   %ebx
 916:	83 ec 2c             	sub    $0x2c,%esp
 919:	8b 5d 0c             	mov    0xc(%ebp),%ebx
 91c:	8b 75 08             	mov    0x8(%ebp),%esi
 91f:	0f b6 13             	movzbl (%ebx),%edx
 922:	84 d2                	test   %dl,%dl
 924:	74 6a                	je     990 <printf+0x80>
 926:	8d 45 10             	lea    0x10(%ebp),%eax
 929:	83 c3 01             	add    $0x1,%ebx
 92c:	8d 7d e7             	lea    -0x19(%ebp),%edi
 92f:	31 c9                	xor    %ecx,%ecx
 931:	89 45 d0             	mov    %eax,-0x30(%ebp)
 934:	eb 36                	jmp    96c <printf+0x5c>
 936:	8d b4 26 00 00 00 00 	lea    0x0(%esi,%eiz,1),%esi
 93d:	8d 76 00             	lea    0x0(%esi),%esi
 940:	89 4d d4             	mov    %ecx,-0x2c(%ebp)
 943:	b9 25 00 00 00       	mov    $0x25,%ecx
 948:	83 f8 25             	cmp    $0x25,%eax
 94b:	74 15                	je     962 <printf+0x52>
 94d:	83 ec 04             	sub    $0x4,%esp
 950:	88 55 e7             	mov    %dl,-0x19(%ebp)
 953:	6a 01                	push   $0x1
 955:	57                   	push   %edi
 956:	56                   	push   %esi
 957:	e8 e7 fd ff ff       	call   743 <write>
 95c:	8b 4d d4             	mov    -0x2c(%ebp),%ecx
 95f:	83 c4 10             	add    $0x10,%esp
 962:	0f b6 13             	movzbl (%ebx),%edx
 965:	83 c3 01             	add    $0x1,%ebx
 968:	84 d2                	test   %dl,%dl
 96a:	74 24                	je     990 <printf+0x80>
 96c:	0f b6 c2             	movzbl %dl,%eax
 96f:	85 c9                	test   %ecx,%ecx
 971:	74 cd                	je     940 <printf+0x30>
 973:	83 f9 25             	cmp    $0x25,%ecx
 976:	75 ea                	jne    962 <printf+0x52>
 978:	83 f8 25             	cmp    $0x25,%eax
 97b:	0f 84 07 01 00 00    	je     a88 <printf+0x178>
 981:	83 e8 63             	sub    $0x63,%eax
 984:	83 f8 15             	cmp    $0x15,%eax
 987:	77 17                	ja     9a0 <printf+0x90>
 989:	ff 24 85 7c 0e 00 00 	jmp    *0xe7c(,%eax,4)
 990:	8d 65 f4             	lea    -0xc(%ebp),%esp
 993:	5b                   	pop    %ebx
 994:	5e                   	pop    %esi
 995:	5f                   	pop    %edi
 996:	5d                   	pop    %ebp
 997:	c3                   	ret    
 998:	8d b4 26 00 00 00 00 	lea    0x0(%esi,%eiz,1),%esi
 99f:	90                   	nop
 9a0:	83 ec 04             	sub    $0x4,%esp
 9a3:	88 55 d4             	mov    %dl,-0x2c(%ebp)
 9a6:	6a 01                	push   $0x1
 9a8:	57                   	push   %edi
 9a9:	56                   	push   %esi
 9aa:	c6 45 e7 25          	movb   $0x25,-0x19(%ebp)
 9ae:	e8 90 fd ff ff       	call   743 <write>
 9b3:	0f b6 55 d4          	movzbl -0x2c(%ebp),%edx
 9b7:	83 c4 0c             	add    $0xc,%esp
 9ba:	88 55 e7             	mov    %dl,-0x19(%ebp)
 9bd:	6a 01                	push   $0x1
 9bf:	57                   	push   %edi
 9c0:	56                   	push   %esi
 9c1:	e8 7d fd ff ff       	call   743 <write>
 9c6:	83 c4 10             	add    $0x10,%esp
 9c9:	31 c9                	xor    %ecx,%ecx
 9cb:	eb 95                	jmp    962 <printf+0x52>
 9cd:	8d 76 00             	lea    0x0(%esi),%esi
 9d0:	83 ec 0c             	sub    $0xc,%esp
 9d3:	b9 10 00 00 00       	mov    $0x10,%ecx
 9d8:	6a 00                	push   $0x0
 9da:	8b 45 d0             	mov    -0x30(%ebp),%eax
 9dd:	8b 10                	mov    (%eax),%edx
 9df:	89 f0                	mov    %esi,%eax
 9e1:	e8 7a fe ff ff       	call   860 <printint>
 9e6:	83 45 d0 04          	addl   $0x4,-0x30(%ebp)
 9ea:	83 c4 10             	add    $0x10,%esp
 9ed:	31 c9                	xor    %ecx,%ecx
 9ef:	e9 6e ff ff ff       	jmp    962 <printf+0x52>
 9f4:	8d 74 26 00          	lea    0x0(%esi,%eiz,1),%esi
 9f8:	8b 45 d0             	mov    -0x30(%ebp),%eax
 9fb:	8b 10                	mov    (%eax),%edx
 9fd:	83 c0 04             	add    $0x4,%eax
 a00:	89 45 d0             	mov    %eax,-0x30(%ebp)
 a03:	85 d2                	test   %edx,%edx
 a05:	0f 84 8d 00 00 00    	je     a98 <printf+0x188>
 a0b:	0f b6 02             	movzbl (%edx),%eax
 a0e:	31 c9                	xor    %ecx,%ecx
 a10:	84 c0                	test   %al,%al
 a12:	0f 84 4a ff ff ff    	je     962 <printf+0x52>
 a18:	89 5d d4             	mov    %ebx,-0x2c(%ebp)
 a1b:	89 d3                	mov    %edx,%ebx
 a1d:	8d 76 00             	lea    0x0(%esi),%esi
 a20:	83 ec 04             	sub    $0x4,%esp
 a23:	83 c3 01             	add    $0x1,%ebx
 a26:	88 45 e7             	mov    %al,-0x19(%ebp)
 a29:	6a 01                	push   $0x1
 a2b:	57                   	push   %edi
 a2c:	56                   	push   %esi
 a2d:	e8 11 fd ff ff       	call   743 <write>
 a32:	0f b6 03             	movzbl (%ebx),%eax
 a35:	83 c4 10             	add    $0x10,%esp
 a38:	84 c0                	test   %al,%al
 a3a:	75 e4                	jne    a20 <printf+0x110>
 a3c:	8b 5d d4             	mov    -0x2c(%ebp),%ebx
 a3f:	31 c9                	xor    %ecx,%ecx
 a41:	e9 1c ff ff ff       	jmp    962 <printf+0x52>
 a46:	8d b4 26 00 00 00 00 	lea    0x0(%esi,%eiz,1),%esi
 a4d:	8d 76 00             	lea    0x0(%esi),%esi
 a50:	83 ec 0c             	sub    $0xc,%esp
 a53:	b9 0a 00 00 00       	mov    $0xa,%ecx
 a58:	6a 01                	push   $0x1
 a5a:	e9 7b ff ff ff       	jmp    9da <printf+0xca>
 a5f:	90                   	nop
 a60:	8b 45 d0             	mov    -0x30(%ebp),%eax
 a63:	83 ec 04             	sub    $0x4,%esp
 a66:	8b 00                	mov    (%eax),%eax
 a68:	6a 01                	push   $0x1
 a6a:	57                   	push   %edi
 a6b:	56                   	push   %esi
 a6c:	88 45 e7             	mov    %al,-0x19(%ebp)
 a6f:	e8 cf fc ff ff       	call   743 <write>
 a74:	83 45 d0 04          	addl   $0x4,-0x30(%ebp)
 a78:	83 c4 10             	add    $0x10,%esp
 a7b:	31 c9                	xor    %ecx,%ecx
 a7d:	e9 e0 fe ff ff       	jmp    962 <printf+0x52>
 a82:	8d b6 00 00 00 00    	lea    0x0(%esi),%esi
 a88:	88 55 e7             	mov    %dl,-0x19(%ebp)
 a8b:	83 ec 04             	sub    $0x4,%esp
 a8e:	e9 2a ff ff ff       	jmp    9bd <printf+0xad>
 a93:	8d 74 26 00          	lea    0x0(%esi,%eiz,1),%esi
 a97:	90                   	nop
 a98:	ba 72 0e 00 00       	mov    $0xe72,%edx
 a9d:	89 5d d4             	mov    %ebx,-0x2c(%ebp)
 aa0:	b8 28 00 00 00       	mov    $0x28,%eax
 aa5:	89 d3                	mov    %edx,%ebx
 aa7:	e9 74 ff ff ff       	jmp    a20 <printf+0x110>
 aac:	66 90                	xchg   %ax,%ax
 aae:	66 90                	xchg   %ax,%ax

00000ab0 <free>:
 ab0:	55                   	push   %ebp
 ab1:	a1 a8 12 00 00       	mov    0x12a8,%eax
 ab6:	89 e5                	mov    %esp,%ebp
 ab8:	57                   	push   %edi
 ab9:	56                   	push   %esi
 aba:	53                   	push   %ebx
 abb:	8b 5d 08             	mov    0x8(%ebp),%ebx
 abe:	8d 4b f8             	lea    -0x8(%ebx),%ecx
 ac1:	8d b4 26 00 00 00 00 	lea    0x0(%esi,%eiz,1),%esi
 ac8:	89 c2                	mov    %eax,%edx
 aca:	8b 00                	mov    (%eax),%eax
 acc:	39 ca                	cmp    %ecx,%edx
 ace:	73 30                	jae    b00 <free+0x50>
 ad0:	39 c1                	cmp    %eax,%ecx
 ad2:	72 04                	jb     ad8 <free+0x28>
 ad4:	39 c2                	cmp    %eax,%edx
 ad6:	72 f0                	jb     ac8 <free+0x18>
 ad8:	8b 73 fc             	mov    -0x4(%ebx),%esi
 adb:	8d 3c f1             	lea    (%ecx,%esi,8),%edi
 ade:	39 f8                	cmp    %edi,%eax
 ae0:	74 30                	je     b12 <free+0x62>
 ae2:	89 43 f8             	mov    %eax,-0x8(%ebx)
 ae5:	8b 42 04             	mov    0x4(%edx),%eax
 ae8:	8d 34 c2             	lea    (%edx,%eax,8),%esi
 aeb:	39 f1                	cmp    %esi,%ecx
 aed:	74 3a                	je     b29 <free+0x79>
 aef:	89 0a                	mov    %ecx,(%edx)
 af1:	5b                   	pop    %ebx
 af2:	89 15 a8 12 00 00    	mov    %edx,0x12a8
 af8:	5e                   	pop    %esi
 af9:	5f                   	pop    %edi
 afa:	5d                   	pop    %ebp
 afb:	c3                   	ret    
 afc:	8d 74 26 00          	lea    0x0(%esi,%eiz,1),%esi
 b00:	39 c2                	cmp    %eax,%edx
 b02:	72 c4                	jb     ac8 <free+0x18>
 b04:	39 c1                	cmp    %eax,%ecx
 b06:	73 c0                	jae    ac8 <free+0x18>
 b08:	8b 73 fc             	mov    -0x4(%ebx),%esi
 b0b:	8d 3c f1             	lea    (%ecx,%esi,8),%edi
 b0e:	39 f8                	cmp    %edi,%eax
 b10:	75 d0                	jne    ae2 <free+0x32>
 b12:	03 70 04             	add    0x4(%eax),%esi
 b15:	89 73 fc             	mov    %esi,-0x4(%ebx)
 b18:	8b 02                	mov    (%edx),%eax
 b1a:	8b 00                	mov    (%eax),%eax
 b1c:	89 43 f8             	mov    %eax,-0x8(%ebx)
 b1f:	8b 42 04             	mov    0x4(%edx),%eax
 b22:	8d 34 c2             	lea    (%edx,%eax,8),%esi
 b25:	39 f1                	cmp    %esi,%ecx
 b27:	75 c6                	jne    aef <free+0x3f>
 b29:	03 43 fc             	add    -0x4(%ebx),%eax
 b2c:	89 15 a8 12 00 00    	mov    %edx,0x12a8
 b32:	89 42 04             	mov    %eax,0x4(%edx)
 b35:	8b 4b f8             	mov    -0x8(%ebx),%ecx
 b38:	89 0a                	mov    %ecx,(%edx)
 b3a:	5b                   	pop    %ebx
 b3b:	5e                   	pop    %esi
 b3c:	5f                   	pop    %edi
 b3d:	5d                   	pop    %ebp
 b3e:	c3                   	ret    
 b3f:	90                   	nop

00000b40 <malloc>:
 b40:	55                   	push   %ebp
 b41:	89 e5                	mov    %esp,%ebp
 b43:	57                   	push   %edi
 b44:	56                   	push   %esi
 b45:	53                   	push   %ebx
 b46:	83 ec 1c             	sub    $0x1c,%esp
 b49:	8b 45 08             	mov    0x8(%ebp),%eax
 b4c:	8b 3d a8 12 00 00    	mov    0x12a8,%edi
 b52:	8d 70 07             	lea    0x7(%eax),%esi
 b55:	c1 ee 03             	shr    $0x3,%esi
 b58:	83 c6 01             	add    $0x1,%esi
 b5b:	85 ff                	test   %edi,%edi
 b5d:	0f 84 9d 00 00 00    	je     c00 <malloc+0xc0>
 b63:	8b 17                	mov    (%edi),%edx
 b65:	8b 4a 04             	mov    0x4(%edx),%ecx
 b68:	39 f1                	cmp    %esi,%ecx
 b6a:	73 6a                	jae    bd6 <malloc+0x96>
 b6c:	bb 00 10 00 00       	mov    $0x1000,%ebx
 b71:	39 de                	cmp    %ebx,%esi
 b73:	0f 43 de             	cmovae %esi,%ebx
 b76:	8d 04 dd 00 00 00 00 	lea    0x0(,%ebx,8),%eax
 b7d:	89 45 e4             	mov    %eax,-0x1c(%ebp)
 b80:	eb 17                	jmp    b99 <malloc+0x59>
 b82:	8d b6 00 00 00 00    	lea    0x0(%esi),%esi
 b88:	8b 02                	mov    (%edx),%eax
 b8a:	8b 48 04             	mov    0x4(%eax),%ecx
 b8d:	39 f1                	cmp    %esi,%ecx
 b8f:	73 4f                	jae    be0 <malloc+0xa0>
 b91:	8b 3d a8 12 00 00    	mov    0x12a8,%edi
 b97:	89 c2                	mov    %eax,%edx
 b99:	39 d7                	cmp    %edx,%edi
 b9b:	75 eb                	jne    b88 <malloc+0x48>
 b9d:	83 ec 0c             	sub    $0xc,%esp
 ba0:	ff 75 e4             	push   -0x1c(%ebp)
 ba3:	e8 03 fc ff ff       	call   7ab <sbrk>
 ba8:	83 c4 10             	add    $0x10,%esp
 bab:	83 f8 ff             	cmp    $0xffffffff,%eax
 bae:	74 1c                	je     bcc <malloc+0x8c>
 bb0:	89 58 04             	mov    %ebx,0x4(%eax)
 bb3:	83 ec 0c             	sub    $0xc,%esp
 bb6:	83 c0 08             	add    $0x8,%eax
 bb9:	50                   	push   %eax
 bba:	e8 f1 fe ff ff       	call   ab0 <free>
 bbf:	8b 15 a8 12 00 00    	mov    0x12a8,%edx
 bc5:	83 c4 10             	add    $0x10,%esp
 bc8:	85 d2                	test   %edx,%edx
 bca:	75 bc                	jne    b88 <malloc+0x48>
 bcc:	8d 65 f4             	lea    -0xc(%ebp),%esp
 bcf:	31 c0                	xor    %eax,%eax
 bd1:	5b                   	pop    %ebx
 bd2:	5e                   	pop    %esi
 bd3:	5f                   	pop    %edi
 bd4:	5d                   	pop    %ebp
 bd5:	c3                   	ret    
 bd6:	89 d0                	mov    %edx,%eax
 bd8:	89 fa                	mov    %edi,%edx
 bda:	8d b6 00 00 00 00    	lea    0x0(%esi),%esi
 be0:	39 ce                	cmp    %ecx,%esi
 be2:	74 4c                	je     c30 <malloc+0xf0>
 be4:	29 f1                	sub    %esi,%ecx
 be6:	89 48 04             	mov    %ecx,0x4(%eax)
 be9:	8d 04 c8             	lea    (%eax,%ecx,8),%eax
 bec:	89 70 04             	mov    %esi,0x4(%eax)
 bef:	89 15 a8 12 00 00    	mov    %edx,0x12a8
 bf5:	8d 65 f4             	lea    -0xc(%ebp),%esp
 bf8:	83 c0 08             	add    $0x8,%eax
 bfb:	5b                   	pop    %ebx
 bfc:	5e                   	pop    %esi
 bfd:	5f                   	pop    %edi
 bfe:	5d                   	pop    %ebp
 bff:	c3                   	ret    
 c00:	c7 05 a8 12 00 00 ac 	movl   $0x12ac,0x12a8
 c07:	12 00 00 
 c0a:	bf ac 12 00 00       	mov    $0x12ac,%edi
 c0f:	c7 05 ac 12 00 00 ac 	movl   $0x12ac,0x12ac
 c16:	12 00 00 
 c19:	89 fa                	mov    %edi,%edx
 c1b:	c7 05 b0 12 00 00 00 	movl   $0x0,0x12b0
 c22:	00 00 00 
 c25:	e9 42 ff ff ff       	jmp    b6c <malloc+0x2c>
 c2a:	8d b6 00 00 00 00    	lea    0x0(%esi),%esi
 c30:	8b 08                	mov    (%eax),%ecx
 c32:	89 0a                	mov    %ecx,(%edx)
 c34:	eb b9                	jmp    bef <malloc+0xaf>
